target datalayout = "e-m:e-p270:32:32-p271:32:32-p272:64:64-i64:64-i128:128-f80:128-n8:16:32:64-S128"
target triple = "x86_64-pc-linux-gnu"

%struct.ruby_glob_funcs_t = type { ptr, ptr }
%struct.brace_args = type { %struct.ruby_glob_funcs_t, i64, i32 }

; Function Attrs: nounwind sspstrong uwtable
define hidden i32 @ruby_brace_glob_with_enc(ptr noundef %0, i32 noundef %1, ptr noundef %2, i64 noundef %3, ptr noundef %4) #0 {
  %6 = alloca ptr, align 8
  %7 = alloca i32, align 4
  %8 = alloca ptr, align 8
  %9 = alloca i64, align 8
  %10 = alloca ptr, align 8
  %11 = alloca %struct.brace_args, align 8
  store ptr %0, ptr %6, align 8, !tbaa !11
  store i32 %1, ptr %7, align 4, !tbaa !21
  store ptr %2, ptr %8, align 8, !tbaa !14
  store i64 %3, ptr %9, align 8, !tbaa !7
  store ptr %4, ptr %10, align 8, !tbaa !19
  call void @llvm.lifetime.start.p0(i64 32, ptr %11) #26
  %12 = load i32, ptr %7, align 4, !tbaa !21
  %13 = and i32 %12, 2147483647
  store i32 %13, ptr %7, align 4, !tbaa !21
  %14 = load ptr, ptr %8, align 8, !tbaa !14
  %15 = getelementptr inbounds nuw %struct.brace_args, ptr %11, i32 0, i32 0
  %16 = getelementptr inbounds nuw %struct.ruby_glob_funcs_t, ptr %15, i32 0, i32 0
  store ptr %14, ptr %16, align 8, !tbaa !39
  %17 = getelementptr inbounds nuw %struct.brace_args, ptr %11, i32 0, i32 0
  %18 = getelementptr inbounds nuw %struct.ruby_glob_funcs_t, ptr %17, i32 0, i32 1
  store ptr null, ptr %18, align 8, !tbaa !41
  %19 = load i64, ptr %9, align 8, !tbaa !7
  %20 = getelementptr inbounds nuw %struct.brace_args, ptr %11, i32 0, i32 1
  store i64 %19, ptr %20, align 8, !tbaa !42
  %21 = load i32, ptr %7, align 4, !tbaa !21
  %22 = getelementptr inbounds nuw %struct.brace_args, ptr %11, i32 0, i32 2
  store i32 %21, ptr %22, align 8, !tbaa !43
  %23 = load ptr, ptr %6, align 8, !tbaa !11
  %24 = load i32, ptr %7, align 4, !tbaa !21
  %25 = ptrtoint ptr %11 to i64
  %26 = load ptr, ptr %10, align 8, !tbaa !19
  %27 = call i32 @ruby_brace_expand(ptr noundef %23, i32 noundef %24, ptr noundef @glob_brace, i64 noundef %25, ptr noundef %26, i64 noundef 0)
  call void @llvm.lifetime.end.p0(i64 32, ptr %11) #26
  ret i32 %27
}