; Function Attrs: nounwind sspstrong uwtable
define hidden i32 @ruby_brace_glob_with_enc(ptr noundef %0, i32 noundef %1, ptr noundef %2, i64 noundef %3, ptr noundef %4) local_unnamed_addr #0 {
  %6 = alloca %struct.brace_args, align 8
  call void @llvm.lifetime.start.p0(i64 32, ptr nonnull %6) #22
  %7 = and i32 %1, 2147483647
  store ptr %2, ptr %6, align 8, !tbaa !40
  %8 = getelementptr inbounds nuw i8, ptr %6, i64 8
  store ptr null, ptr %8, align 8, !tbaa !42
  %9 = getelementptr inbounds nuw i8, ptr %6, i64 16
  store i64 %3, ptr %9, align 8, !tbaa !43
  %10 = getelementptr inbounds nuw i8, ptr %6, i64 24
  store i32 %7, ptr %10, align 8, !tbaa !44
  %11 = ptrtoint ptr %6 to i64
  %12 = call fastcc i32 @ruby_brace_expand(ptr noundef %0, i32 noundef %7, ptr noundef nonnull @glob_brace, i64 noundef %11, ptr noundef %4, i64 noundef 0)
  call void @llvm.lifetime.end.p0(i64 32, ptr nonnull %6) #22
  ret i32 %12
}